; ModuleID = '31/853.c'
source_filename = "31/853.c"
target datalayout = "e-m:e-p270:32:32-p271:32:32-p272:64:64-i64:64-f80:128-n8:16:32:64-S128"
target triple = "x86_64-pc-linux-gnu"

%struct.student = type { [1000 x i8], %struct.student* }

@.str = private unnamed_addr constant [4 x i8] c"end\00", align 1

; Function Attrs: noinline nounwind uwtable
define dso_local i32 @main() #0 {
  %1 = alloca i32, align 4
  %2 = alloca i32, align 4
  %3 = alloca i32, align 4
  %4 = alloca i32, align 4
  %5 = alloca i32, align 4
  %6 = alloca i32, align 4
  %7 = alloca i32, align 4
  %8 = alloca i32, align 4
  %9 = alloca [1000 x %struct.student], align 16
  %10 = alloca %struct.student*, align 8
  %11 = alloca %struct.student*, align 8
  store i32 0, i32* %1, align 4
  store i32 0, i32* %8, align 4
  store i32 0, i32* %2, align 4
  br label %12

12:                                               ; preds = %30, %0
  %13 = load i32, i32* %2, align 4
  %14 = sext i32 %13 to i64
  %15 = getelementptr inbounds [1000 x %struct.student], [1000 x %struct.student]* %9, i64 0, i64 %14
  %16 = getelementptr inbounds %struct.student, %struct.student* %15, i32 0, i32 0
  %17 = getelementptr inbounds [1000 x i8], [1000 x i8]* %16, i64 0, i64 0
  %18 = call i32 (i8*, ...) bitcast (i32 (...)* @gets to i32 (i8*, ...)*)(i8* %17)
  %19 = load i32, i32* %8, align 4
  %20 = add nsw i32 %19, 1
  store i32 %20, i32* %8, align 4
  %21 = load i32, i32* %2, align 4
  %22 = sext i32 %21 to i64
  %23 = getelementptr inbounds [1000 x %struct.student], [1000 x %struct.student]* %9, i64 0, i64 %22
  %24 = getelementptr inbounds %struct.student, %struct.student* %23, i32 0, i32 0
  %25 = getelementptr inbounds [1000 x i8], [1000 x i8]* %24, i64 0, i64 0
  %26 = call i32 @strcmp(i8* %25, i8* getelementptr inbounds ([4 x i8], [4 x i8]* @.str, i64 0, i64 0)) #3
  %27 = icmp eq i32 %26, 0
  br i1 %27, label %28, label %29

28:                                               ; preds = %12
  br label %33

29:                                               ; preds = %12
  br label %30

30:                                               ; preds = %29
  %31 = load i32, i32* %2, align 4
  %32 = add nsw i32 %31, 1
  store i32 %32, i32* %2, align 4
  br label %12

33:                                               ; preds = %28
  %34 = load i32, i32* %8, align 4
  %35 = sub nsw i32 %34, 2
  %36 = sext i32 %35 to i64
  %37 = getelementptr inbounds [1000 x %struct.student], [1000 x %struct.student]* %9, i64 0, i64 %36
  store %struct.student* %37, %struct.student** %10, align 8
  %38 = load i32, i32* %8, align 4
  %39 = sub nsw i32 %38, 2
  store i32 %39, i32* %2, align 4
  br label %40

40:                                               ; preds = %52, %33
  %41 = load i32, i32* %2, align 4
  %42 = icmp sge i32 %41, 1
  br i1 %42, label %43, label %55

43:                                               ; preds = %40
  %44 = load i32, i32* %2, align 4
  %45 = sub nsw i32 %44, 1
  %46 = sext i32 %45 to i64
  %47 = getelementptr inbounds [1000 x %struct.student], [1000 x %struct.student]* %9, i64 0, i64 %46
  %48 = load i32, i32* %2, align 4
  %49 = sext i32 %48 to i64
  %50 = getelementptr inbounds [1000 x %struct.student], [1000 x %struct.student]* %9, i64 0, i64 %49
  %51 = getelementptr inbounds %struct.student, %struct.student* %50, i32 0, i32 1
  store %struct.student* %47, %struct.student** %51, align 8
  br label %52

52:                                               ; preds = %43
  %53 = load i32, i32* %2, align 4
  %54 = add nsw i32 %53, -1
  store i32 %54, i32* %2, align 4
  br label %40

55:                                               ; preds = %40
  %56 = getelementptr inbounds [1000 x %struct.student], [1000 x %struct.student]* %9, i64 0, i64 0
  %57 = getelementptr inbounds %struct.student, %struct.student* %56, i32 0, i32 1
  store %struct.student* null, %struct.student** %57, align 8
  %58 = load %struct.student*, %struct.student** %10, align 8
  store %struct.student* %58, %struct.student** %11, align 8
  br label %59

59:                                               ; preds = %62, %55
  %60 = load %struct.student*, %struct.student** %11, align 8
  %61 = icmp ne %struct.student* %60, null
  br i1 %61, label %62, label %70

62:                                               ; preds = %59
  %63 = load %struct.student*, %struct.student** %11, align 8
  %64 = getelementptr inbounds %struct.student, %struct.student* %63, i32 0, i32 0
  %65 = getelementptr inbounds [1000 x i8], [1000 x i8]* %64, i64 0, i64 0
  %66 = call i32 @puts(i8* %65)
  %67 = load %struct.student*, %struct.student** %11, align 8
  %68 = getelementptr inbounds %struct.student, %struct.student* %67, i32 0, i32 1
  %69 = load %struct.student*, %struct.student** %68, align 8
  store %struct.student* %69, %struct.student** %11, align 8
  br label %59

70:                                               ; preds = %59
  %71 = load i32, i32* %1, align 4
  ret i32 %71
}

declare dso_local i32 @gets(...) #1

; Function Attrs: nounwind readonly
declare dso_local i32 @strcmp(i8*, i8*) #2

declare dso_local i32 @puts(i8*) #1


!llvm.module.flags = !{!0}
!llvm.ident = !{!1}

!0 = !{i32 1, !"wchar_size", i32 4}
!1 = !{!"clang version 10.0.0-4ubuntu1 "}
